target datalayout = "e-m:e-p270:32:32-p271:32:32-p272:64:64-i64:64-i128:128-f80:128-n8:16:32:64-S128"
target triple = "x86_64-pc-linux-gnu"

; Function Attrs: nounwind uwtable
define ptr @stb_include_append(ptr noundef %0, ptr noundef %1, ptr noundef %2, i64 noundef %3) #0 {
  %5 = alloca ptr, align 8
  %6 = alloca ptr, align 8
  %7 = alloca ptr, align 8
  %8 = alloca i64, align 8
  store ptr %0, ptr %5, align 8, !tbaa !3
  store ptr %1, ptr %6, align 8, !tbaa !8
  store ptr %2, ptr %7, align 8, !tbaa !3
  store i64 %3, ptr %8, align 8, !tbaa !12
  %9 = load ptr, ptr %5, align 8, !tbaa !3
  %10 = load ptr, ptr %6, align 8, !tbaa !8
  %11 = load i64, ptr %10, align 8, !tbaa !12
  %12 = load i64, ptr %8, align 8, !tbaa !12
  %13 = add i64 %11, %12
  %14 = call ptr @realloc(ptr noundef %9, i64 noundef %13) #10
  store ptr %14, ptr %5, align 8, !tbaa !3
  %15 = load ptr, ptr %5, align 8, !tbaa !3
  %16 = load ptr, ptr %6, align 8, !tbaa !8
  %17 = load i64, ptr %16, align 8, !tbaa !12
  %18 = getelementptr inbounds nuw i8, ptr %15, i64 %17
  %19 = load ptr, ptr %7, align 8, !tbaa !3
  %20 = load i64, ptr %8, align 8, !tbaa !12
  call void @llvm.memcpy.p0.p0.i64(ptr align 1 %18, ptr align 1 %19, i64 %20, i1 false)
  %21 = load i64, ptr %8, align 8, !tbaa !12
  %22 = load ptr, ptr %6, align 8, !tbaa !8
  %23 = load i64, ptr %22, align 8, !tbaa !12
  %24 = add i64 %23, %21
  store i64 %24, ptr %22, align 8, !tbaa !12
  %25 = load ptr, ptr %5, align 8, !tbaa !3
  ret ptr %25
}