; Function Attrs: mustprogress nounwind willreturn uwtable
define noalias noundef ptr @stb_include_append(ptr noundef captures(none) %0, ptr noundef captures(none) %1, ptr noundef readonly captures(none) %2, i64 noundef %3) local_unnamed_addr #12 {
  %5 = load i64, ptr %1, align 8, !tbaa !3
  %6 = add i64 %5, %3
  %7 = tail call ptr @realloc(ptr noundef %0, i64 noundef %6) #15
  %8 = load i64, ptr %1, align 8, !tbaa !3
  %9 = getelementptr inbounds nuw i8, ptr %7, i64 %8
  tail call void @llvm.memcpy.p0.p0.i64(ptr align 1 %9, ptr align 1 %2, i64 %3, i1 false)
  %10 = add i64 %8, %3
  store i64 %10, ptr %1, align 8, !tbaa !3
  ret ptr %7
}